target datalayout = "e-m:e-p270:32:32-p271:32:32-p272:64:64-i64:64-f80:128-n8:16:32:64-S128"
target triple = "x86_64-pc-linux-gnu"

@.str = private unnamed_addr constant [3 x i8] c"%d\00", align 1
@.str.1 = private unnamed_addr constant [3 x i8] c"%s\00", align 1
@.str.2 = private unnamed_addr constant [3 x i8] c"NO\00", align 1
@.str.3 = private unnamed_addr constant [4 x i8] c"%d\0A\00", align 1
@.str.4 = private unnamed_addr constant [4 x i8] c"%s\0A\00", align 1

; Function Attrs: noinline nounwind uwtable
define dso_local i32 @save(i8* %0, [5 x i8]* %1, i32* %2, i32 %3) #0 {
  %5 = alloca i8*, align 8
  %6 = alloca [5 x i8]*, align 8
  %7 = alloca i32*, align 8
  %8 = alloca i32, align 4
  %9 = alloca i32, align 4
  %10 = alloca i32, align 4
  store i8* %0, i8** %5, align 8
  store [5 x i8]* %1, [5 x i8]** %6, align 8
  store i32* %2, i32** %7, align 8
  store i32 %3, i32* %8, align 4
  store i32 0, i32* %9, align 4
  store i32 0, i32* %10, align 4
  store i32 0, i32* %9, align 4
  br label %11

11:                                               ; preds = %37, %4
  %12 = load i32, i32* %9, align 4
  %13 = load i32, i32* %8, align 4
  %14 = icmp slt i32 %12, %13
  br i1 %14, label %15, label %18

15:                                               ; preds = %11
  %16 = load i32, i32* %10, align 4
  %17 = icmp eq i32 %16, 0
  br label %18

18:                                               ; preds = %15, %11
  %19 = phi i1 [ false, %11 ], [ %17, %15 ]
  br i1 %19, label %20, label %40

20:                                               ; preds = %18
  %21 = load i8*, i8** %5, align 8
  %22 = load [5 x i8]*, [5 x i8]** %6, align 8
  %23 = load i32, i32* %9, align 4
  %24 = sext i32 %23 to i64
  %25 = getelementptr inbounds [5 x i8], [5 x i8]* %22, i64 %24
  %26 = getelementptr inbounds [5 x i8], [5 x i8]* %25, i64 0, i64 0
  %27 = call i32 @strcmp(i8* %21, i8* %26) #5
  %28 = icmp eq i32 %27, 0
  br i1 %28, label %29, label %36

29:                                               ; preds = %20
  %30 = load i32*, i32** %7, align 8
  %31 = load i32, i32* %9, align 4
  %32 = sext i32 %31 to i64
  %33 = getelementptr inbounds i32, i32* %30, i64 %32
  %34 = load i32, i32* %33, align 4
  %35 = add nsw i32 %34, 1
  store i32 %35, i32* %33, align 4
  store i32 1, i32* %10, align 4
  br label %36

36:                                               ; preds = %29, %20
  br label %37

37:                                               ; preds = %36
  %38 = load i32, i32* %9, align 4
  %39 = add nsw i32 %38, 1
  store i32 %39, i32* %9, align 4
  br label %11

40:                                               ; preds = %18
  %41 = load i32, i32* %10, align 4
  %42 = icmp eq i32 %41, 0
  br i1 %42, label %43, label %53

43:                                               ; preds = %40
  %44 = load [5 x i8]*, [5 x i8]** %6, align 8
  %45 = load i32, i32* %8, align 4
  %46 = sext i32 %45 to i64
  %47 = getelementptr inbounds [5 x i8], [5 x i8]* %44, i64 %46
  %48 = getelementptr inbounds [5 x i8], [5 x i8]* %47, i64 0, i64 0
  %49 = load i8*, i8** %5, align 8
  %50 = call i8* @strcpy(i8* %48, i8* %49) #6
  %51 = load i32, i32* %8, align 4
  %52 = add nsw i32 %51, 1
  store i32 %52, i32* %8, align 4
  br label %53

53:                                               ; preds = %43, %40
  %54 = load i32, i32* %8, align 4
  ret i32 %54
}

; Function Attrs: noinline nounwind uwtable
define dso_local i32 @main() #0 {
  %1 = alloca i32, align 4
  %2 = alloca i32, align 4
  %3 = alloca i32, align 4
  %4 = alloca i32, align 4
  %5 = alloca i32, align 4
  %6 = alloca i32, align 4
  %7 = alloca i64, align 8
  %8 = alloca [2000 x i8], align 16
  %9 = alloca [5 x i8], align 1
  %10 = alloca [400 x [5 x i8]], align 16
  %11 = alloca [400 x i32], align 16
  store i32 0, i32* %1, align 4
  store i32 0, i32* %3, align 4
  store i32 0, i32* %4, align 4
  store i32 0, i32* %5, align 4
  store i32 0, i32* %6, align 4
  %12 = bitcast [2000 x i8]* %8 to i8*
  call void @llvm.memset.p0i8.i64(i8* align 16 %12, i8 0, i64 2000, i1 false)
  %13 = bitcast [5 x i8]* %9 to i8*
  call void @llvm.memset.p0i8.i64(i8* align 1 %13, i8 0, i64 5, i1 false)
  %14 = bitcast [400 x [5 x i8]]* %10 to i8*
  call void @llvm.memset.p0i8.i64(i8* align 16 %14, i8 0, i64 2000, i1 false)
  %15 = bitcast [400 x i32]* %11 to i8*
  call void @llvm.memset.p0i8.i64(i8* align 16 %15, i8 0, i64 1600, i1 false)
  %16 = call i32 (i8*, ...) @__isoc99_scanf(i8* getelementptr inbounds ([3 x i8], [3 x i8]* @.str, i64 0, i64 0), i32* %2)
  %17 = getelementptr inbounds [2000 x i8], [2000 x i8]* %8, i64 0, i64 0
  %18 = call i32 (i8*, ...) @__isoc99_scanf(i8* getelementptr inbounds ([3 x i8], [3 x i8]* @.str.1, i64 0, i64 0), i8* %17)
  %19 = getelementptr inbounds [2000 x i8], [2000 x i8]* %8, i64 0, i64 0
  %20 = call i64 @strlen(i8* %19) #5
  store i64 %20, i64* %7, align 8
  store i32 0, i32* %3, align 4
  br label %21

21:                                               ; preds = %53, %0
  %22 = load i32, i32* %3, align 4
  %23 = sext i32 %22 to i64
  %24 = load i64, i64* %7, align 8
  %25 = load i32, i32* %2, align 4
  %26 = sext i32 %25 to i64
  %27 = sub nsw i64 %24, %26
  %28 = icmp sle i64 %23, %27
  br i1 %28, label %29, label %56

29:                                               ; preds = %21
  store i32 0, i32* %4, align 4
  br label %30

30:                                               ; preds = %44, %29
  %31 = load i32, i32* %4, align 4
  %32 = load i32, i32* %2, align 4
  %33 = icmp slt i32 %31, %32
  br i1 %33, label %34, label %47

34:                                               ; preds = %30
  %35 = load i32, i32* %4, align 4
  %36 = load i32, i32* %3, align 4
  %37 = add nsw i32 %35, %36
  %38 = sext i32 %37 to i64
  %39 = getelementptr inbounds [2000 x i8], [2000 x i8]* %8, i64 0, i64 %38
  %40 = load i8, i8* %39, align 1
  %41 = load i32, i32* %4, align 4
  %42 = sext i32 %41 to i64
  %43 = getelementptr inbounds [5 x i8], [5 x i8]* %9, i64 0, i64 %42
  store i8 %40, i8* %43, align 1
  br label %44

44:                                               ; preds = %34
  %45 = load i32, i32* %4, align 4
  %46 = add nsw i32 %45, 1
  store i32 %46, i32* %4, align 4
  br label %30

47:                                               ; preds = %30
  %48 = getelementptr inbounds [5 x i8], [5 x i8]* %9, i64 0, i64 0
  %49 = getelementptr inbounds [400 x [5 x i8]], [400 x [5 x i8]]* %10, i64 0, i64 0
  %50 = getelementptr inbounds [400 x i32], [400 x i32]* %11, i64 0, i64 0
  %51 = load i32, i32* %5, align 4
  %52 = call i32 @save(i8* %48, [5 x i8]* %49, i32* %50, i32 %51)
  store i32 %52, i32* %5, align 4
  br label %53

53:                                               ; preds = %47
  %54 = load i32, i32* %3, align 4
  %55 = add nsw i32 %54, 1
  store i32 %55, i32* %3, align 4
  br label %21

56:                                               ; preds = %21
  store i32 0, i32* %4, align 4
  br label %57

57:                                               ; preds = %74, %56
  %58 = load i32, i32* %4, align 4
  %59 = load i32, i32* %5, align 4
  %60 = icmp slt i32 %58, %59
  br i1 %60, label %61, label %77

61:                                               ; preds = %57
  %62 = load i32, i32* %4, align 4
  %63 = sext i32 %62 to i64
  %64 = getelementptr inbounds [400 x i32], [400 x i32]* %11, i64 0, i64 %63
  %65 = load i32, i32* %64, align 4
  %66 = load i32, i32* %6, align 4
  %67 = icmp sge i32 %65, %66
  br i1 %67, label %68, label %73

68:                                               ; preds = %61
  %69 = load i32, i32* %4, align 4
  %70 = sext i32 %69 to i64
  %71 = getelementptr inbounds [400 x i32], [400 x i32]* %11, i64 0, i64 %70
  %72 = load i32, i32* %71, align 4
  store i32 %72, i32* %6, align 4
  br label %73

73:                                               ; preds = %68, %61
  br label %74

74:                                               ; preds = %73
  %75 = load i32, i32* %4, align 4
  %76 = add nsw i32 %75, 1
  store i32 %76, i32* %4, align 4
  br label %57

77:                                               ; preds = %57
  %78 = load i32, i32* %6, align 4
  %79 = icmp eq i32 %78, 0
  br i1 %79, label %80, label %82

80:                                               ; preds = %77
  %81 = call i32 (i8*, ...) @printf(i8* getelementptr inbounds ([3 x i8], [3 x i8]* @.str.2, i64 0, i64 0))
  br label %108

82:                                               ; preds = %77
  %83 = load i32, i32* %6, align 4
  %84 = add nsw i32 %83, 1
  %85 = call i32 (i8*, ...) @printf(i8* getelementptr inbounds ([4 x i8], [4 x i8]* @.str.3, i64 0, i64 0), i32 %84)
  store i32 0, i32* %4, align 4
  br label %86

86:                                               ; preds = %104, %82
  %87 = load i32, i32* %4, align 4
  %88 = load i32, i32* %5, align 4
  %89 = icmp slt i32 %87, %88
  br i1 %89, label %90, label %107

90:                                               ; preds = %86
  %91 = load i32, i32* %4, align 4
  %92 = sext i32 %91 to i64
  %93 = getelementptr inbounds [400 x i32], [400 x i32]* %11, i64 0, i64 %92
  %94 = load i32, i32* %93, align 4
  %95 = load i32, i32* %6, align 4
  %96 = icmp eq i32 %94, %95
  br i1 %96, label %97, label %103

97:                                               ; preds = %90
  %98 = load i32, i32* %4, align 4
  %99 = sext i32 %98 to i64
  %100 = getelementptr inbounds [400 x [5 x i8]], [400 x [5 x i8]]* %10, i64 0, i64 %99
  %101 = getelementptr inbounds [5 x i8], [5 x i8]* %100, i64 0, i64 0
  %102 = call i32 (i8*, ...) @printf(i8* getelementptr inbounds ([4 x i8], [4 x i8]* @.str.4, i64 0, i64 0), i8* %101)
  br label %103

103:                                              ; preds = %97, %90
  br label %104

104:                                              ; preds = %103
  %105 = load i32, i32* %4, align 4
  %106 = add nsw i32 %105, 1
  store i32 %106, i32* %4, align 4
  br label %86

107:                                              ; preds = %86
  br label %108

108:                                              ; preds = %107, %80
  %109 = load i32, i32* %1, align 4
  ret i32 %109
}